; Function Attrs: mustprogress uwtable
define void @_ZN9syscall_t14handle_syscallE9command_t(ptr noundef nonnull align 8 dereferenceable(176) %0, ptr noundef %1) #3 align 2 {
  %3 = alloca i64, align 8
  %4 = getelementptr inbounds i8, ptr %1, i64 8
  %5 = load i64, ptr %4, align 8
  %6 = and i64 %5, 1
  %.not = icmp eq i64 %6, 0
  br i1 %.not, label %21, label %7

7:                                                ; preds = %2
  %8 = trunc i64 %5 to i32
  %9 = getelementptr inbounds i8, ptr %0, i64 56
  %10 = load ptr, ptr %9, align 8
  %11 = getelementptr inbounds i8, ptr %10, i64 168
  store i32 %8, ptr %11, align 8
  %12 = load ptr, ptr %9, align 8
  %13 = tail call noundef i32 @_ZN6htif_t9exit_codeEv(ptr noundef nonnull align 8 dereferenceable(696) %12)
  %.not1 = icmp eq i32 %13, 0
  br i1 %.not1, label %32, label %14

14:                                               ; preds = %7
  %15 = tail call noundef nonnull align 8 dereferenceable(8) ptr @_ZStlsISt11char_traitsIcEERSt13basic_ostreamIcT_ES5_PKc(ptr noundef nonnull align 8 dereferenceable(8) @_ZSt4cerr, ptr noundef nonnull @.str.3)
  %16 = load ptr, ptr %9, align 8
  %17 = tail call noundef i32 @_ZN6htif_t9exit_codeEv(ptr noundef nonnull align 8 dereferenceable(696) %16)
  %18 = tail call noundef nonnull align 8 dereferenceable(8) ptr @_ZNSolsEi(ptr noundef nonnull align 8 dereferenceable(8) %15, i32 noundef %17)
  %19 = tail call noundef nonnull align 8 dereferenceable(8) ptr @_ZStlsISt11char_traitsIcEERSt13basic_ostreamIcT_ES5_PKc(ptr noundef nonnull align 8 dereferenceable(8) %18, ptr noundef nonnull @.str.4)
  %20 = tail call noundef nonnull align 8 dereferenceable(8) ptr @_ZNSolsEPFRSoS_E(ptr noundef nonnull align 8 dereferenceable(8) %19, ptr noundef nonnull @_ZSt4endlIcSt11char_traitsIcEERSt13basic_ostreamIT_T0_ES6_)
  br label %32

21:                                               ; preds = %2
  %22 = and i64 %5, 281474976710654
  tail call void @_ZN9syscall_t8dispatchEm(ptr noundef nonnull align 8 dereferenceable(176) %0, i64 noundef %22)
  %23 = load i64, ptr %4, align 8
  %24 = and i64 %23, -281474976710656
  %25 = or disjoint i64 %24, 1
  call void @llvm.lifetime.start.p0(i64 8, ptr nonnull %3)
  store i64 %25, ptr %3, align 8
  %26 = getelementptr inbounds i8, ptr %1, i64 32
  %27 = load ptr, ptr %26, align 8
  %.not.i.i.i = icmp eq ptr %27, null
  br i1 %.not.i.i.i, label %28, label %_ZN9command_t7respondEm.exit

28:                                               ; preds = %21
  tail call void @_ZSt25__throw_bad_function_callv() #28
  unreachable

_ZN9command_t7respondEm.exit:                     ; preds = %21
  %29 = getelementptr inbounds i8, ptr %1, i64 16
  %30 = getelementptr inbounds i8, ptr %1, i64 40
  %31 = load ptr, ptr %30, align 8
  call void %31(ptr noundef nonnull align 8 dereferenceable(16) %29, ptr noundef nonnull align 8 dereferenceable(8) %3)
  call void @llvm.lifetime.end.p0(i64 8, ptr nonnull %3)
  br label %32

32:                                               ; preds = %7, %14, %_ZN9command_t7respondEm.exit
  ret void
}